target datalayout = "e-m:e-p270:32:32-p271:32:32-p272:64:64-i64:64-i128:128-f80:128-n8:16:32:64-S128"
target triple = "x86_64-pc-linux-gnu"

%"struct.llvm::EVT" = type { %"class.llvm::MVT", ptr }
%"class.llvm::MVT" = type { i16 }
%"class.llvm::SDValue" = type <{ ptr, i32, [4 x i8] }>
%"class.llvm::SDNode" = type { %"class.llvm::FoldingSetBase::Node", %"class.llvm::ilist_node", i32, %"struct.llvm::SDNodeFlags", %union.anon, i16, i32, ptr, ptr, ptr, i16, i16, i32, %"class.llvm::DebugLoc", i32, i32 }
%"class.llvm::FoldingSetBase::Node" = type { ptr }
%"class.llvm::ilist_node" = type { %"class.llvm::ilist_node_impl" }
%"class.llvm::ilist_node_impl" = type { %"class.llvm::ilist_node_base" }
%"class.llvm::ilist_node_base" = type { %"class.llvm::ilist_detail::node_base_prevnext" }
%"class.llvm::ilist_detail::node_base_prevnext" = type { ptr, ptr }
%"struct.llvm::SDNodeFlags" = type { i16 }
%union.anon = type { %"class.llvm::SDNode::LSBaseSDNodeBitfields" }
%"class.llvm::SDNode::LSBaseSDNodeBitfields" = type { i16 }
%"class.llvm::DebugLoc" = type { %"class.llvm::TypedTrackingMDRef" }
%"class.llvm::TypedTrackingMDRef" = type { %"class.llvm::TrackingMDRef" }
%"class.llvm::TrackingMDRef" = type { ptr }
%"class.llvm::SDUse" = type { %"class.llvm::SDValue", ptr, ptr, ptr }

@.str.7 = private unnamed_addr constant [51 x i8] c"Do not know how to expand this operator's operand!\00", align 1

; Function Attrs: mustprogress nounwind uwtable
define linkonce_odr hidden noundef ptr @_ZN4llvm16cast_convert_valINS_11StoreSDNodeEPNS_6SDNodeES3_E4doitEPKS2_(ptr noundef %0) #0 comdat align 2 {
  %2 = alloca ptr, align 8
  store ptr %0, ptr %2, align 8
  %3 = load ptr, ptr %2, align 8
  ret ptr %3
}

; Function Attrs: mustprogress nounwind uwtable
define linkonce_odr hidden noundef ptr @_ZN4llvm8CastInfoINS_11StoreSDNodeEPNS_6SDNodeEvE6doCastERKS3_(ptr noundef nonnull align 8 dereferenceable(8) %0) #0 comdat align 2 {
  %2 = alloca ptr, align 8
  store ptr %0, ptr %2, align 8
  %3 = load ptr, ptr %2, align 8
  %4 = load ptr, ptr %3, align 8
  %5 = call noundef ptr @_ZN4llvm16cast_convert_valINS_11StoreSDNodeEPNS_6SDNodeES3_E4doitEPKS2_(ptr noundef %4)
  ret ptr %5
}

; Function Attrs: mustprogress nounwind uwtable
define linkonce_odr hidden { i16, ptr } @_ZNK4llvm6SDNode12getValueTypeEj(ptr noundef nonnull align 8 dereferenceable(88) %0, i32 noundef %1) #0 comdat align 2 {
  %3 = alloca %"struct.llvm::EVT", align 8
  %4 = alloca ptr, align 8
  %5 = alloca i32, align 4
  store ptr %0, ptr %4, align 8
  store i32 %1, ptr %5, align 4
  %6 = load ptr, ptr %4, align 8
  %7 = getelementptr inbounds nuw %"class.llvm::SDNode", ptr %6, i32 0, i32 8
  %8 = load ptr, ptr %7, align 8
  %9 = load i32, ptr %5, align 4
  %10 = zext i32 %9 to i64
  %11 = getelementptr inbounds %"struct.llvm::EVT", ptr %8, i64 %10
  call void @llvm.memcpy.p0.p0.i64(ptr align 8 %3, ptr align 8 %11, i64 16, i1 false)
  %12 = load { i16, ptr }, ptr %3, align 8
  ret { i16, ptr } %12
}

; Function Attrs: mustprogress nounwind uwtable
define linkonce_odr hidden noundef nonnull align 8 dereferenceable(12) ptr @_ZNK4llvm5SDUsecvRKNS_7SDValueEEv(ptr noundef nonnull align 8 dereferenceable(40) %0) #0 comdat align 2 {
  %2 = alloca ptr, align 8
  store ptr %0, ptr %2, align 8
  %3 = load ptr, ptr %2, align 8
  %4 = getelementptr inbounds nuw %"class.llvm::SDUse", ptr %3, i32 0, i32 0
  ret ptr %4
}

; Function Attrs: mustprogress nounwind uwtable
define linkonce_odr hidden void @_ZN4llvm7SDValueC2EPNS_6SDNodeEj(ptr noundef nonnull align 8 dereferenceable(12) %0, ptr noundef %1, i32 noundef %2) unnamed_addr #0 comdat align 2 {
  %4 = alloca ptr, align 8
  %5 = alloca ptr, align 8
  %6 = alloca i32, align 4
  store ptr %0, ptr %4, align 8
  store ptr %1, ptr %5, align 8
  store i32 %2, ptr %6, align 4
  %7 = load ptr, ptr %4, align 8
  %8 = getelementptr inbounds nuw %"class.llvm::SDValue", ptr %7, i32 0, i32 0
  %9 = load ptr, ptr %5, align 8
  store ptr %9, ptr %8, align 8
  %10 = getelementptr inbounds nuw %"class.llvm::SDValue", ptr %7, i32 0, i32 1
  %11 = load i32, ptr %6, align 4
  store i32 %11, ptr %10, align 8
  ret void
}

; Function Attrs: mustprogress nounwind uwtable
define linkonce_odr hidden noundef ptr @_ZNK4llvm7SDValue7getNodeEv(ptr noundef nonnull align 8 dereferenceable(12) %0) #0 comdat align 2 {
  %2 = alloca ptr, align 8
  store ptr %0, ptr %2, align 8
  %3 = load ptr, ptr %2, align 8
  %4 = getelementptr inbounds nuw %"class.llvm::SDValue", ptr %3, i32 0, i32 0
  %5 = load ptr, ptr %4, align 8
  ret ptr %5
}

; Function Attrs: mustprogress nounwind uwtable
define linkonce_odr hidden noundef ptr @_ZN4llvm4castINS_11StoreSDNodeENS_6SDNodeEEEDcPT0_(ptr noundef %0) #0 comdat {
  %2 = alloca ptr, align 8
  store ptr %0, ptr %2, align 8
  %3 = call noundef ptr @_ZN4llvm8CastInfoINS_11StoreSDNodeEPNS_6SDNodeEvE6doCastERKS3_(ptr noundef nonnull align 8 dereferenceable(8) %2)
  ret ptr %3
}

; Function Attrs: mustprogress nounwind uwtable
define linkonce_odr hidden noundef i32 @_ZNK4llvm6SDNode9getOpcodeEv(ptr noundef nonnull align 8 dereferenceable(88) %0) #0 comdat align 2 {
  %2 = alloca ptr, align 8
  store ptr %0, ptr %2, align 8
  %3 = load ptr, ptr %2, align 8
  %4 = getelementptr inbounds nuw %"class.llvm::SDNode", ptr %3, i32 0, i32 2
  %5 = load i32, ptr %4, align 8
  ret i32 %5
}

; Function Attrs: mustprogress nounwind uwtable
define linkonce_odr hidden { i16, ptr } @_ZNK4llvm7SDValue12getValueTypeEv(ptr noundef nonnull align 8 dereferenceable(12) %0) #0 comdat align 2 {
  %2 = alloca %"struct.llvm::EVT", align 8
  %3 = alloca ptr, align 8
  store ptr %0, ptr %3, align 8
  %4 = load ptr, ptr %3, align 8
  %5 = getelementptr inbounds nuw %"class.llvm::SDValue", ptr %4, i32 0, i32 0
  %6 = load ptr, ptr %5, align 8
  %7 = getelementptr inbounds nuw %"class.llvm::SDValue", ptr %4, i32 0, i32 1
  %8 = load i32, ptr %7, align 8
  %9 = call { i16, ptr } @_ZNK4llvm6SDNode12getValueTypeEj(ptr noundef nonnull align 8 dereferenceable(88) %6, i32 noundef %8)
  %10 = getelementptr inbounds nuw { i16, ptr }, ptr %2, i32 0, i32 0
  %11 = extractvalue { i16, ptr } %9, 0
  store i16 %11, ptr %10, align 8
  %12 = getelementptr inbounds nuw { i16, ptr }, ptr %2, i32 0, i32 1
  %13 = extractvalue { i16, ptr } %9, 1
  store ptr %13, ptr %12, align 8
  %14 = load { i16, ptr }, ptr %2, align 8
  ret { i16, ptr } %14
}

; Function Attrs: mustprogress nounwind uwtable
define linkonce_odr hidden noundef nonnull align 8 dereferenceable(12) ptr @_ZNK4llvm6SDNode10getOperandEj(ptr noundef nonnull align 8 dereferenceable(88) %0, i32 noundef %1) #0 comdat align 2 {
  %3 = alloca ptr, align 8
  %4 = alloca i32, align 4
  store ptr %0, ptr %3, align 8
  store i32 %1, ptr %4, align 4
  %5 = load ptr, ptr %3, align 8
  %6 = getelementptr inbounds nuw %"class.llvm::SDNode", ptr %5, i32 0, i32 7
  %7 = load ptr, ptr %6, align 8
  %8 = load i32, ptr %4, align 4
  %9 = zext i32 %8 to i64
  %10 = getelementptr inbounds %"class.llvm::SDUse", ptr %7, i64 %9
  %11 = call noundef nonnull align 8 dereferenceable(12) ptr @_ZNK4llvm5SDUsecvRKNS_7SDValueEEv(ptr noundef nonnull align 8 dereferenceable(40) %10)
  ret ptr %11
}

; Function Attrs: mustprogress nounwind uwtable
define linkonce_odr hidden void @_ZN4llvm7SDValueC2Ev(ptr noundef nonnull align 8 dereferenceable(12) %0) unnamed_addr #0 comdat align 2 {
  %2 = alloca ptr, align 8
  store ptr %0, ptr %2, align 8
  %3 = load ptr, ptr %2, align 8
  %4 = getelementptr inbounds nuw %"class.llvm::SDValue", ptr %3, i32 0, i32 0
  store ptr null, ptr %4, align 8
  %5 = getelementptr inbounds nuw %"class.llvm::SDValue", ptr %3, i32 0, i32 1
  store i32 0, ptr %5, align 8
  ret void
}

; Function Attrs: mustprogress nounwind uwtable
define hidden noundef zeroext i1 @_ZN4llvm16DAGTypeLegalizer18ExpandFloatOperandEPNS_6SDNodeEj(ptr noundef nonnull align 8 dereferenceable(2512) %0, ptr noundef %1, i32 noundef %2) #0 align 2 {
  %4 = alloca i1, align 1
  %5 = alloca ptr, align 8
  %6 = alloca ptr, align 8
  %7 = alloca i32, align 4
  %8 = alloca %"class.llvm::SDValue", align 8
  %9 = alloca %"struct.llvm::EVT", align 8
  %10 = alloca %"class.llvm::SDValue", align 8
  %11 = alloca { ptr, i32 }, align 8
  %12 = alloca %"class.llvm::SDValue", align 8
  %13 = alloca { ptr, i32 }, align 8
  %14 = alloca %"class.llvm::SDValue", align 8
  %15 = alloca { ptr, i32 }, align 8
  %16 = alloca %"class.llvm::SDValue", align 8
  %17 = alloca { ptr, i32 }, align 8
  %18 = alloca %"class.llvm::SDValue", align 8
  %19 = alloca { ptr, i32 }, align 8
  %20 = alloca %"class.llvm::SDValue", align 8
  %21 = alloca { ptr, i32 }, align 8
  %22 = alloca %"class.llvm::SDValue", align 8
  %23 = alloca { ptr, i32 }, align 8
  %24 = alloca %"class.llvm::SDValue", align 8
  %25 = alloca { ptr, i32 }, align 8
  %26 = alloca %"class.llvm::SDValue", align 8
  %27 = alloca { ptr, i32 }, align 8
  %28 = alloca %"class.llvm::SDValue", align 8
  %29 = alloca { ptr, i32 }, align 8
  %30 = alloca %"class.llvm::SDValue", align 8
  %31 = alloca { ptr, i32 }, align 8
  %32 = alloca %"class.llvm::SDValue", align 8
  %33 = alloca { ptr, i32 }, align 8
  %34 = alloca %"class.llvm::SDValue", align 8
  %35 = alloca { ptr, i32 }, align 8
  %36 = alloca %"class.llvm::SDValue", align 8
  %37 = alloca { ptr, i32 }, align 8
  %38 = alloca %"class.llvm::SDValue", align 8
  %39 = alloca %"class.llvm::SDValue", align 8
  store ptr %0, ptr %5, align 8
  store ptr %1, ptr %6, align 8
  store i32 %2, ptr %7, align 4
  %40 = load ptr, ptr %5, align 8
  br label %41

41:                                               ; preds = %3
  br label %42

42:                                               ; preds = %41
  call void @llvm.memset.p0.i64(ptr align 8 %8, i8 0, i64 16, i1 false)
  call void @_ZN4llvm7SDValueC2Ev(ptr noundef nonnull align 8 dereferenceable(12) %8) #10
  %43 = load ptr, ptr %6, align 8
  %44 = load ptr, ptr %6, align 8
  %45 = load i32, ptr %7, align 4
  %46 = call noundef nonnull align 8 dereferenceable(12) ptr @_ZNK4llvm6SDNode10getOperandEj(ptr noundef nonnull align 8 dereferenceable(88) %44, i32 noundef %45)
  %47 = call { i16, ptr } @_ZNK4llvm7SDValue12getValueTypeEv(ptr noundef nonnull align 8 dereferenceable(12) %46)
  %48 = getelementptr inbounds nuw { i16, ptr }, ptr %9, i32 0, i32 0
  %49 = extractvalue { i16, ptr } %47, 0
  store i16 %49, ptr %48, align 8
  %50 = getelementptr inbounds nuw { i16, ptr }, ptr %9, i32 0, i32 1
  %51 = extractvalue { i16, ptr } %47, 1
  store ptr %51, ptr %50, align 8
  %52 = getelementptr inbounds nuw { i16, ptr }, ptr %9, i32 0, i32 0
  %53 = load i16, ptr %52, align 8
  %54 = getelementptr inbounds nuw { i16, ptr }, ptr %9, i32 0, i32 1
  %55 = load ptr, ptr %54, align 8
  %56 = call noundef zeroext i1 @_ZN4llvm16DAGTypeLegalizer15CustomLowerNodeEPNS_6SDNodeENS_3EVTEb(ptr noundef nonnull align 8 dereferenceable(2512) %40, ptr noundef %43, i16 %53, ptr %55, i1 noundef zeroext false)
  br i1 %56, label %57, label %58

57:                                               ; preds = %42
  store i1 false, ptr %4, align 1
  br label %125

58:                                               ; preds = %42
  %59 = load ptr, ptr %6, align 8
  %60 = call noundef i32 @_ZNK4llvm6SDNode9getOpcodeEv(ptr noundef nonnull align 8 dereferenceable(88) %59)
  switch i32 %60, label %61 [
    i32 233, label %62
    i32 155, label %65
    i32 53, label %68
    i32 302, label %71
    i32 151, label %74
    i32 144, label %77
    i32 229, label %77
    i32 140, label %80
    i32 141, label %80
    i32 225, label %80
    i32 226, label %80
    i32 273, label %83
    i32 274, label %86
    i32 275, label %89
    i32 276, label %92
    i32 206, label %95
    i32 146, label %98
    i32 147, label %98
    i32 207, label %98
    i32 295, label %101
  ]

61:                                               ; preds = %58
  call void @_ZN4llvm18report_fatal_errorEPKcb(ptr noundef @.str.7, i1 noundef zeroext true) #11
  unreachable

62:                                               ; preds = %58
  %63 = load ptr, ptr %6, align 8
  %64 = call { ptr, i32 } @_ZN4llvm16DAGTypeLegalizer16ExpandOp_BITCASTEPNS_6SDNodeE(ptr noundef nonnull align 8 dereferenceable(2512) %40, ptr noundef %63)
  store { ptr, i32 } %64, ptr %11, align 8
  call void @llvm.memcpy.p0.p0.i64(ptr align 8 %10, ptr align 8 %11, i64 12, i1 false)
  call void @llvm.memcpy.p0.p0.i64(ptr align 8 %8, ptr align 8 %10, i64 12, i1 false)
  br label %106

65:                                               ; preds = %58
  %66 = load ptr, ptr %6, align 8
  %67 = call { ptr, i32 } @_ZN4llvm16DAGTypeLegalizer21ExpandOp_BUILD_VECTOREPNS_6SDNodeE(ptr noundef nonnull align 8 dereferenceable(2512) %40, ptr noundef %66)
  store { ptr, i32 } %67, ptr %13, align 8
  call void @llvm.memcpy.p0.p0.i64(ptr align 8 %12, ptr align 8 %13, i64 12, i1 false)
  call void @llvm.memcpy.p0.p0.i64(ptr align 8 %8, ptr align 8 %12, i64 12, i1 false)
  br label %106

68:                                               ; preds = %58
  %69 = load ptr, ptr %6, align 8
  %70 = call { ptr, i32 } @_ZN4llvm16DAGTypeLegalizer24ExpandOp_EXTRACT_ELEMENTEPNS_6SDNodeE(ptr noundef nonnull align 8 dereferenceable(2512) %40, ptr noundef %69)
  store { ptr, i32 } %70, ptr %15, align 8
  call void @llvm.memcpy.p0.p0.i64(ptr align 8 %14, ptr align 8 %15, i64 12, i1 false)
  call void @llvm.memcpy.p0.p0.i64(ptr align 8 %8, ptr align 8 %14, i64 12, i1 false)
  br label %106

71:                                               ; preds = %58
  %72 = load ptr, ptr %6, align 8
  %73 = call { ptr, i32 } @_ZN4llvm16DAGTypeLegalizer19ExpandFloatOp_BR_CCEPNS_6SDNodeE(ptr noundef nonnull align 8 dereferenceable(2512) %40, ptr noundef %72)
  store { ptr, i32 } %73, ptr %17, align 8
  call void @llvm.memcpy.p0.p0.i64(ptr align 8 %16, ptr align 8 %17, i64 12, i1 false)
  call void @llvm.memcpy.p0.p0.i64(ptr align 8 %8, ptr align 8 %16, i64 12, i1 false)
  br label %106

74:                                               ; preds = %58
  %75 = load ptr, ptr %6, align 8
  %76 = call { ptr, i32 } @_ZN4llvm16DAGTypeLegalizer23ExpandFloatOp_FCOPYSIGNEPNS_6SDNodeE(ptr noundef nonnull align 8 dereferenceable(2512) %40, ptr noundef %75)
  store { ptr, i32 } %76, ptr %19, align 8
  call void @llvm.memcpy.p0.p0.i64(ptr align 8 %18, ptr align 8 %19, i64 12, i1 false)
  call void @llvm.memcpy.p0.p0.i64(ptr align 8 %8, ptr align 8 %18, i64 12, i1 false)
  br label %106

77:                                               ; preds = %58, %58
  %78 = load ptr, ptr %6, align 8
  %79 = call { ptr, i32 } @_ZN4llvm16DAGTypeLegalizer22ExpandFloatOp_FP_ROUNDEPNS_6SDNodeE(ptr noundef nonnull align 8 dereferenceable(2512) %40, ptr noundef %78)
  store { ptr, i32 } %79, ptr %21, align 8
  call void @llvm.memcpy.p0.p0.i64(ptr align 8 %20, ptr align 8 %21, i64 12, i1 false)
  call void @llvm.memcpy.p0.p0.i64(ptr align 8 %8, ptr align 8 %20, i64 12, i1 false)
  br label %106

80:                                               ; preds = %58, %58, %58, %58
  %81 = load ptr, ptr %6, align 8
  %82 = call { ptr, i32 } @_ZN4llvm16DAGTypeLegalizer24ExpandFloatOp_FP_TO_XINTEPNS_6SDNodeE(ptr noundef nonnull align 8 dereferenceable(2512) %40, ptr noundef %81)
  store { ptr, i32 } %82, ptr %23, align 8
  call void @llvm.memcpy.p0.p0.i64(ptr align 8 %22, ptr align 8 %23, i64 12, i1 false)
  call void @llvm.memcpy.p0.p0.i64(ptr align 8 %8, ptr align 8 %22, i64 12, i1 false)
  br label %106

83:                                               ; preds = %58
  %84 = load ptr, ptr %6, align 8
  %85 = call { ptr, i32 } @_ZN4llvm16DAGTypeLegalizer20ExpandFloatOp_LROUNDEPNS_6SDNodeE(ptr noundef nonnull align 8 dereferenceable(2512) %40, ptr noundef %84)
  store { ptr, i32 } %85, ptr %25, align 8
  call void @llvm.memcpy.p0.p0.i64(ptr align 8 %24, ptr align 8 %25, i64 12, i1 false)
  call void @llvm.memcpy.p0.p0.i64(ptr align 8 %8, ptr align 8 %24, i64 12, i1 false)
  br label %106

86:                                               ; preds = %58
  %87 = load ptr, ptr %6, align 8
  %88 = call { ptr, i32 } @_ZN4llvm16DAGTypeLegalizer21ExpandFloatOp_LLROUNDEPNS_6SDNodeE(ptr noundef nonnull align 8 dereferenceable(2512) %40, ptr noundef %87)
  store { ptr, i32 } %88, ptr %27, align 8
  call void @llvm.memcpy.p0.p0.i64(ptr align 8 %26, ptr align 8 %27, i64 12, i1 false)
  call void @llvm.memcpy.p0.p0.i64(ptr align 8 %8, ptr align 8 %26, i64 12, i1 false)
  br label %106

89:                                               ; preds = %58
  %90 = load ptr, ptr %6, align 8
  %91 = call { ptr, i32 } @_ZN4llvm16DAGTypeLegalizer19ExpandFloatOp_LRINTEPNS_6SDNodeE(ptr noundef nonnull align 8 dereferenceable(2512) %40, ptr noundef %90)
  store { ptr, i32 } %91, ptr %29, align 8
  call void @llvm.memcpy.p0.p0.i64(ptr align 8 %28, ptr align 8 %29, i64 12, i1 false)
  call void @llvm.memcpy.p0.p0.i64(ptr align 8 %8, ptr align 8 %28, i64 12, i1 false)
  br label %106

92:                                               ; preds = %58
  %93 = load ptr, ptr %6, align 8
  %94 = call { ptr, i32 } @_ZN4llvm16DAGTypeLegalizer20ExpandFloatOp_LLRINTEPNS_6SDNodeE(ptr noundef nonnull align 8 dereferenceable(2512) %40, ptr noundef %93)
  store { ptr, i32 } %94, ptr %31, align 8
  call void @llvm.memcpy.p0.p0.i64(ptr align 8 %30, ptr align 8 %31, i64 12, i1 false)
  call void @llvm.memcpy.p0.p0.i64(ptr align 8 %8, ptr align 8 %30, i64 12, i1 false)
  br label %106

95:                                               ; preds = %58
  %96 = load ptr, ptr %6, align 8
  %97 = call { ptr, i32 } @_ZN4llvm16DAGTypeLegalizer23ExpandFloatOp_SELECT_CCEPNS_6SDNodeE(ptr noundef nonnull align 8 dereferenceable(2512) %40, ptr noundef %96)
  store { ptr, i32 } %97, ptr %33, align 8
  call void @llvm.memcpy.p0.p0.i64(ptr align 8 %32, ptr align 8 %33, i64 12, i1 false)
  call void @llvm.memcpy.p0.p0.i64(ptr align 8 %8, ptr align 8 %32, i64 12, i1 false)
  br label %106

98:                                               ; preds = %58, %58, %58
  %99 = load ptr, ptr %6, align 8
  %100 = call { ptr, i32 } @_ZN4llvm16DAGTypeLegalizer19ExpandFloatOp_SETCCEPNS_6SDNodeE(ptr noundef nonnull align 8 dereferenceable(2512) %40, ptr noundef %99)
  store { ptr, i32 } %100, ptr %35, align 8
  call void @llvm.memcpy.p0.p0.i64(ptr align 8 %34, ptr align 8 %35, i64 12, i1 false)
  call void @llvm.memcpy.p0.p0.i64(ptr align 8 %8, ptr align 8 %34, i64 12, i1 false)
  br label %106

101:                                              ; preds = %58
  %102 = load ptr, ptr %6, align 8
  %103 = call noundef ptr @_ZN4llvm4castINS_11StoreSDNodeENS_6SDNodeEEEDcPT0_(ptr noundef %102)
  %104 = load i32, ptr %7, align 4
  %105 = call { ptr, i32 } @_ZN4llvm16DAGTypeLegalizer19ExpandFloatOp_STOREEPNS_6SDNodeEj(ptr noundef nonnull align 8 dereferenceable(2512) %40, ptr noundef %103, i32 noundef %104)
  store { ptr, i32 } %105, ptr %37, align 8
  call void @llvm.memcpy.p0.p0.i64(ptr align 8 %36, ptr align 8 %37, i64 12, i1 false)
  call void @llvm.memcpy.p0.p0.i64(ptr align 8 %8, ptr align 8 %36, i64 12, i1 false)
  br label %106

106:                                              ; preds = %101, %98, %95, %92, %89, %86, %83, %80, %77, %74, %71, %68, %65, %62
  %107 = call noundef ptr @_ZNK4llvm7SDValue7getNodeEv(ptr noundef nonnull align 8 dereferenceable(12) %8)
  %108 = icmp ne ptr %107, null
  br i1 %108, label %110, label %109

109:                                              ; preds = %106
  store i1 false, ptr %4, align 1
  br label %125

110:                                              ; preds = %106
  %111 = call noundef ptr @_ZNK4llvm7SDValue7getNodeEv(ptr noundef nonnull align 8 dereferenceable(12) %8)
  %112 = load ptr, ptr %6, align 8
  %113 = icmp eq ptr %111, %112
  br i1 %113, label %114, label %115

114:                                              ; preds = %110
  store i1 true, ptr %4, align 1
  br label %125

115:                                              ; preds = %110
  %116 = load ptr, ptr %6, align 8
  call void @_ZN4llvm7SDValueC2EPNS_6SDNodeEj(ptr noundef nonnull align 8 dereferenceable(12) %38, ptr noundef %116, i32 noundef 0)
  call void @llvm.memcpy.p0.p0.i64(ptr align 8 %39, ptr align 8 %8, i64 16, i1 false)
  %117 = getelementptr inbounds nuw { ptr, i32 }, ptr %38, i32 0, i32 0
  %118 = load ptr, ptr %117, align 8
  %119 = getelementptr inbounds nuw { ptr, i32 }, ptr %38, i32 0, i32 1
  %120 = load i32, ptr %119, align 8
  %121 = getelementptr inbounds nuw { ptr, i32 }, ptr %39, i32 0, i32 0
  %122 = load ptr, ptr %121, align 8
  %123 = getelementptr inbounds nuw { ptr, i32 }, ptr %39, i32 0, i32 1
  %124 = load i32, ptr %123, align 8
  call void @_ZN4llvm16DAGTypeLegalizer16ReplaceValueWithENS_7SDValueES1_(ptr noundef nonnull align 8 dereferenceable(2512) %40, ptr %118, i32 %120, ptr %122, i32 %124)
  store i1 false, ptr %4, align 1
  br label %125

125:                                              ; preds = %115, %114, %109, %57
  %126 = load i1, ptr %4, align 1
  ret i1 %126
}