; Function Attrs: mustprogress nounwind uwtable
define hidden noundef zeroext i1 @_ZN4llvm16DAGTypeLegalizer18ExpandFloatOperandEPNS_6SDNodeEj(ptr noundef nonnull align 8 dereferenceable(2512) %0, ptr noundef %1, i32 noundef %2) local_unnamed_addr #0 align 2 {
  %4 = getelementptr inbounds nuw i8, ptr %1, i64 40
  %5 = load ptr, ptr %4, align 8
  %6 = zext i32 %2 to i64
  %7 = getelementptr inbounds %"class.llvm::SDUse", ptr %5, i64 %6
  %8 = load ptr, ptr %7, align 8
  %9 = getelementptr inbounds nuw i8, ptr %7, i64 8
  %10 = load i32, ptr %9, align 8
  %11 = getelementptr inbounds nuw i8, ptr %8, i64 48
  %12 = load ptr, ptr %11, align 8
  %13 = zext i32 %10 to i64
  %14 = getelementptr inbounds %"struct.llvm::EVT", ptr %12, i64 %13
  %.sroa.0.0.copyload.i.i = load i16, ptr %14, align 8
  %.sroa.21.0..sroa_idx.i.i = getelementptr inbounds i8, ptr %14, i64 8
  %.sroa.21.0.copyload.i.i = load ptr, ptr %.sroa.21.0..sroa_idx.i.i, align 8
  %15 = tail call noundef zeroext i1 @_ZN4llvm16DAGTypeLegalizer15CustomLowerNodeEPNS_6SDNodeENS_3EVTEb(ptr noundef nonnull align 8 dereferenceable(2512) %0, ptr noundef nonnull %1, i16 %.sroa.0.0.copyload.i.i, ptr %.sroa.21.0.copyload.i.i, i1 noundef zeroext false) #15
  br i1 %15, label %52, label %16

16:                                               ; preds = %3
  %17 = getelementptr inbounds nuw i8, ptr %1, i64 24
  %18 = load i32, ptr %17, align 8
  switch i32 %18, label %19 [
    i32 233, label %20
    i32 155, label %22
    i32 53, label %24
    i32 302, label %26
    i32 151, label %28
    i32 144, label %30
    i32 229, label %30
    i32 140, label %32
    i32 141, label %32
    i32 225, label %32
    i32 226, label %32
    i32 273, label %34
    i32 274, label %36
    i32 275, label %38
    i32 276, label %40
    i32 206, label %42
    i32 146, label %44
    i32 147, label %44
    i32 207, label %44
    i32 295, label %46
  ]

19:                                               ; preds = %16
  tail call void @_ZN4llvm18report_fatal_errorEPKcb(ptr noundef nonnull @.str.7, i1 noundef zeroext true) #14
  unreachable

20:                                               ; preds = %16
  %21 = tail call { ptr, i32 } @_ZN4llvm16DAGTypeLegalizer16ExpandOp_BITCASTEPNS_6SDNodeE(ptr noundef nonnull align 8 dereferenceable(2512) %0, ptr noundef nonnull %1) #15
  br label %48

22:                                               ; preds = %16
  %23 = tail call { ptr, i32 } @_ZN4llvm16DAGTypeLegalizer21ExpandOp_BUILD_VECTOREPNS_6SDNodeE(ptr noundef nonnull align 8 dereferenceable(2512) %0, ptr noundef nonnull %1) #15
  br label %48

24:                                               ; preds = %16
  %25 = tail call { ptr, i32 } @_ZN4llvm16DAGTypeLegalizer24ExpandOp_EXTRACT_ELEMENTEPNS_6SDNodeE(ptr noundef nonnull align 8 dereferenceable(2512) %0, ptr noundef nonnull %1) #15
  br label %48

26:                                               ; preds = %16
  %27 = tail call { ptr, i32 } @_ZN4llvm16DAGTypeLegalizer19ExpandFloatOp_BR_CCEPNS_6SDNodeE(ptr noundef nonnull align 8 dereferenceable(2512) %0, ptr noundef nonnull %1)
  br label %48

28:                                               ; preds = %16
  %29 = tail call { ptr, i32 } @_ZN4llvm16DAGTypeLegalizer23ExpandFloatOp_FCOPYSIGNEPNS_6SDNodeE(ptr noundef nonnull align 8 dereferenceable(2512) %0, ptr noundef nonnull %1)
  br label %48

30:                                               ; preds = %16, %16
  %31 = tail call { ptr, i32 } @_ZN4llvm16DAGTypeLegalizer22ExpandFloatOp_FP_ROUNDEPNS_6SDNodeE(ptr noundef nonnull align 8 dereferenceable(2512) %0, ptr noundef nonnull %1)
  br label %48

32:                                               ; preds = %16, %16, %16, %16
  %33 = tail call { ptr, i32 } @_ZN4llvm16DAGTypeLegalizer24ExpandFloatOp_FP_TO_XINTEPNS_6SDNodeE(ptr noundef nonnull align 8 dereferenceable(2512) %0, ptr noundef nonnull %1)
  br label %48

34:                                               ; preds = %16
  %35 = tail call { ptr, i32 } @_ZN4llvm16DAGTypeLegalizer20ExpandFloatOp_LROUNDEPNS_6SDNodeE(ptr noundef nonnull align 8 dereferenceable(2512) %0, ptr noundef nonnull %1)
  br label %48

36:                                               ; preds = %16
  %37 = tail call { ptr, i32 } @_ZN4llvm16DAGTypeLegalizer21ExpandFloatOp_LLROUNDEPNS_6SDNodeE(ptr noundef nonnull align 8 dereferenceable(2512) %0, ptr noundef nonnull %1)
  br label %48

38:                                               ; preds = %16
  %39 = tail call { ptr, i32 } @_ZN4llvm16DAGTypeLegalizer19ExpandFloatOp_LRINTEPNS_6SDNodeE(ptr noundef nonnull align 8 dereferenceable(2512) %0, ptr noundef nonnull %1)
  br label %48

40:                                               ; preds = %16
  %41 = tail call { ptr, i32 } @_ZN4llvm16DAGTypeLegalizer20ExpandFloatOp_LLRINTEPNS_6SDNodeE(ptr noundef nonnull align 8 dereferenceable(2512) %0, ptr noundef nonnull %1)
  br label %48

42:                                               ; preds = %16
  %43 = tail call { ptr, i32 } @_ZN4llvm16DAGTypeLegalizer23ExpandFloatOp_SELECT_CCEPNS_6SDNodeE(ptr noundef nonnull align 8 dereferenceable(2512) %0, ptr noundef nonnull %1)
  br label %48

44:                                               ; preds = %16, %16, %16
  %45 = tail call { ptr, i32 } @_ZN4llvm16DAGTypeLegalizer19ExpandFloatOp_SETCCEPNS_6SDNodeE(ptr noundef nonnull align 8 dereferenceable(2512) %0, ptr noundef nonnull %1)
  br label %48

46:                                               ; preds = %16
  %47 = tail call { ptr, i32 } @_ZN4llvm16DAGTypeLegalizer19ExpandFloatOp_STOREEPNS_6SDNodeEj(ptr noundef nonnull align 8 dereferenceable(2512) %0, ptr noundef nonnull %1, i32 noundef %2)
  br label %48

48:                                               ; preds = %46, %44, %42, %40, %38, %36, %34, %32, %30, %28, %26, %24, %22, %20
  %.pn = phi { ptr, i32 } [ %47, %46 ], [ %45, %44 ], [ %43, %42 ], [ %41, %40 ], [ %39, %38 ], [ %37, %36 ], [ %35, %34 ], [ %33, %32 ], [ %31, %30 ], [ %29, %28 ], [ %27, %26 ], [ %25, %24 ], [ %23, %22 ], [ %21, %20 ]
  %.sroa.0107.0 = extractvalue { ptr, i32 } %.pn, 0
  %.sroa.19.0 = extractvalue { ptr, i32 } %.pn, 1
  %.not = icmp eq ptr %.sroa.0107.0, null
  br i1 %.not, label %52, label %49

49:                                               ; preds = %48
  %50 = icmp eq ptr %.sroa.0107.0, %1
  br i1 %50, label %52, label %51

51:                                               ; preds = %49
  tail call void @_ZN4llvm16DAGTypeLegalizer16ReplaceValueWithENS_7SDValueES1_(ptr noundef nonnull align 8 dereferenceable(2512) %0, ptr nonnull %1, i32 0, ptr nonnull %.sroa.0107.0, i32 %.sroa.19.0) #15
  br label %52

52:                                               ; preds = %49, %48, %3, %51
  %.0 = phi i1 [ false, %51 ], [ false, %3 ], [ false, %48 ], [ true, %49 ]
  ret i1 %.0
}